; Function Attrs: mustprogress uwtable
define dso_local void @_ZN14V3OutFormatter14putsNoTrackingERKNSt7__cxx1112basic_stringIcSt11char_traitsIcESaIcEEE(ptr noundef nonnull align 8 dereferenceable(164) %0, ptr noundef nonnull readonly align 8 captures(none) dereferenceable(32) %1) local_unnamed_addr #4 align 2 {
  %3 = load i8, ptr getelementptr inbounds nuw (i8, ptr @v3Global, i64 1007), align 1, !tbaa !172, !range !36, !noundef !37
  %4 = trunc nuw i8 %3 to i1
  %5 = load ptr, ptr %1, align 8, !tbaa !13
  br i1 %4, label %10, label %6

6:                                                ; preds = %2
  %7 = load ptr, ptr %0, align 8, !tbaa !17
  %8 = getelementptr inbounds nuw i8, ptr %7, i64 24
  %9 = load ptr, ptr %8, align 8
  tail call void %9(ptr noundef nonnull align 8 dereferenceable(164) %0, ptr noundef %5)
  br label %.loopexit

10:                                               ; preds = %2
  %11 = getelementptr inbounds nuw i8, ptr %1, i64 8
  %12 = load i64, ptr %11, align 8, !tbaa !29
  %13 = getelementptr inbounds nuw i8, ptr %5, i64 %12
  %.not8 = icmp samesign eq i64 %12, 0
  br i1 %.not8, label %.loopexit, label %.lr.ph

.lr.ph:                                           ; preds = %10
  %14 = getelementptr inbounds nuw i8, ptr %0, i64 56
  %15 = getelementptr inbounds nuw i8, ptr %0, i64 52
  %16 = getelementptr inbounds nuw i8, ptr %0, i64 60
  br label %17

17:                                               ; preds = %.lr.ph, %_ZN14V3OutFormatter14putcNoTrackingEc.exit
  %.sroa.05.09 = phi ptr [ %5, %.lr.ph ], [ %39, %_ZN14V3OutFormatter14putcNoTrackingEc.exit ]
  %18 = load i8, ptr %.sroa.05.09, align 1, !tbaa !43
  %19 = load i8, ptr getelementptr inbounds nuw (i8, ptr @v3Global, i64 1007), align 1, !tbaa !172, !range !36, !noundef !37
  %20 = trunc nuw i8 %19 to i1
  br i1 %20, label %21, label %_ZN14V3OutFormatter14putcNoTrackingEc.exit

21:                                               ; preds = %17
  switch i8 %18, label %33 [
    i8 10, label %22
    i8 9, label %25
    i8 32, label %30
    i8 40, label %30
    i8 124, label %30
    i8 38, label %30
  ]

22:                                               ; preds = %21
  %23 = load i32, ptr %15, align 4, !tbaa !168
  %24 = add nsw i32 %23, 1
  store i32 %24, ptr %15, align 4, !tbaa !168
  store i32 0, ptr %14, align 8, !tbaa !183
  store i32 1, ptr %16, align 4, !tbaa !184
  br label %_ZN14V3OutFormatter14putcNoTrackingEc.exit

25:                                               ; preds = %21
  %26 = load i32, ptr %14, align 8, !tbaa !183
  %27 = add nsw i32 %26, 9
  %28 = sdiv i32 %27, 8
  %29 = shl nsw i32 %28, 3
  store i32 %29, ptr %14, align 8, !tbaa !183
  br label %_ZN14V3OutFormatter14putcNoTrackingEc.exit

30:                                               ; preds = %21, %21, %21, %21
  %31 = load i32, ptr %14, align 8, !tbaa !183
  %32 = add nsw i32 %31, 1
  store i32 %32, ptr %14, align 8, !tbaa !183
  br label %_ZN14V3OutFormatter14putcNoTrackingEc.exit

33:                                               ; preds = %21
  %34 = load i32, ptr %14, align 8, !tbaa !183
  %35 = add nsw i32 %34, 1
  store i32 %35, ptr %14, align 8, !tbaa !183
  store i32 0, ptr %16, align 4, !tbaa !184
  br label %_ZN14V3OutFormatter14putcNoTrackingEc.exit

_ZN14V3OutFormatter14putcNoTrackingEc.exit:       ; preds = %17, %22, %25, %30, %33
  %36 = load ptr, ptr %0, align 8, !tbaa !17
  %37 = getelementptr inbounds nuw i8, ptr %36, i64 16
  %38 = load ptr, ptr %37, align 8
  tail call void %38(ptr noundef nonnull align 8 dereferenceable(164) %0, i8 noundef signext %18)
  %39 = getelementptr inbounds nuw i8, ptr %.sroa.05.09, i64 1
  %.not = icmp eq ptr %39, %13
  br i1 %.not, label %.loopexit, label %17

.loopexit:                                        ; preds = %_ZN14V3OutFormatter14putcNoTrackingEc.exit, %10, %6
  ret void
}